; Function Attrs: mustprogress uwtable
define internal fastcc void @_ZZN8facebook5velox4bits10forEachBitIZNKS0_9functions12_GLOBAL__N_117MapConcatFunctionILb1EE5applyERKNS0_17SelectivityVectorERSt6vectorISt10shared_ptrINS0_10BaseVectorEESaISD_EERKSB_IKNS0_4TypeEERNS0_4exec7EvalCtxERSD_EUliE1_EEvPKmiibT_ENKUlimE_clEim(ptr nocapture noundef nonnull readonly align 8 dereferenceable(56) %this, i32 noundef %idx, i64 noundef %mask) unnamed_addr #0 align 2 {
entry:
  %0 = load i8, ptr %this, align 8
  %1 = and i8 %0, 1
  %2 = getelementptr inbounds i8, ptr %this, i64 8
  %3 = load ptr, ptr %2, align 8
  %idxprom2 = sext i32 %idx to i64
  %arrayidx3 = getelementptr inbounds i64, ptr %3, i64 %idxprom2
  %4 = load i64, ptr %arrayidx3, align 8
  %sext = add nsw i8 %1, -1
  %not = sext i8 %sext to i64
  %cond = xor i64 %4, %not
  %and = and i64 %cond, %mask
  %tobool4.not = icmp eq i64 %and, 0
  br i1 %tobool4.not, label %while.end, label %while.body.preheader

while.body.preheader:                             ; preds = %entry
  %5 = getelementptr inbounds i8, ptr %this, i64 16
  %mul = shl nsw i32 %idx, 6
  %6 = getelementptr inbounds i8, ptr %this, i64 24
  %7 = getelementptr inbounds i8, ptr %this, i64 32
  %8 = getelementptr inbounds i8, ptr %this, i64 40
  %9 = getelementptr inbounds i8, ptr %this, i64 48
  br label %while.body

while.body:                                       ; preds = %while.body.preheader, %_ZZNK8facebook5velox9functions12_GLOBAL__N_117MapConcatFunctionILb1EE5applyERKNS0_17SelectivityVectorERSt6vectorISt10shared_ptrINS0_10BaseVectorEESaISB_EERKS9_IKNS0_4TypeEERNS0_4exec7EvalCtxERSB_ENKUliE1_clEi.exit
  %word.0 = phi i64 [ %and6, %_ZZNK8facebook5velox9functions12_GLOBAL__N_117MapConcatFunctionILb1EE5applyERKNS0_17SelectivityVectorERSt6vectorISt10shared_ptrINS0_10BaseVectorEESaISB_EERKS9_IKNS0_4TypeEERNS0_4exec7EvalCtxERSB_ENKUliE1_clEi.exit ], [ %and, %while.body.preheader ]
  %10 = tail call i64 @llvm.cttz.i64(i64 %word.0, i1 true), !range !31
  %cast = trunc i64 %10 to i32
  %add = or disjoint i32 %mul, %cast
  %11 = load ptr, ptr %5, align 8
  %12 = load ptr, ptr %11, align 8
  %idxprom.i = sext i32 %add to i64
  %arrayidx.i = getelementptr inbounds i32, ptr %12, i64 %idxprom.i
  %13 = load i32, ptr %arrayidx.i, align 4
  %14 = load ptr, ptr %6, align 8
  %15 = load ptr, ptr %14, align 8
  %arrayidx3.i = getelementptr inbounds i32, ptr %15, i64 %idxprom.i
  %16 = load i32, ptr %arrayidx3.i, align 4
  %17 = load ptr, ptr %7, align 8
  %18 = load i32, ptr %17, align 4
  %tobool.not.i = icmp eq i32 %18, 0
  br i1 %tobool.not.i, label %if.end.i, label %if.then.i

if.then.i:                                        ; preds = %while.body
  %sub.i = sub nsw i32 %13, %18
  store i32 %sub.i, ptr %arrayidx.i, align 4
  br label %if.end.i

if.end.i:                                         ; preds = %if.then.i, %while.body
  %cmp10.i = icmp sgt i32 %16, 1
  br i1 %cmp10.i, label %for.body.i, label %_ZZNK8facebook5velox9functions12_GLOBAL__N_117MapConcatFunctionILb1EE5applyERKNS0_17SelectivityVectorERSt6vectorISt10shared_ptrINS0_10BaseVectorEESaISB_EERKS9_IKNS0_4TypeEERNS0_4exec7EvalCtxERSB_ENKUliE1_clEi.exit

for.body.i:                                       ; preds = %if.end.i, %for.inc.i
  %i.011.i = phi i32 [ %inc16.i, %for.inc.i ], [ 1, %if.end.i ]
  %19 = load ptr, ptr %8, align 8
  %20 = load ptr, ptr %19, align 8
  %add.i = add nsw i32 %i.011.i, %13
  %sub8.i = add nsw i32 %add.i, -1
  %vtable.i = load ptr, ptr %20, align 8
  %vfn.i = getelementptr inbounds i8, ptr %vtable.i, i64 64
  %21 = load ptr, ptr %vfn.i, align 8
  %call9.i = tail call noundef zeroext i1 %21(ptr noundef nonnull align 8 dereferenceable(99) %20, ptr noundef nonnull %20, i32 noundef %add.i, i32 noundef %sub8.i)
  br i1 %call9.i, label %if.then10.i, label %for.inc.i

if.then10.i:                                      ; preds = %for.body.i
  %22 = load ptr, ptr %7, align 8
  %23 = load i32, ptr %22, align 4
  %inc.i = add nsw i32 %23, 1
  store i32 %inc.i, ptr %22, align 4
  %24 = load ptr, ptr %9, align 8
  %25 = load ptr, ptr %24, align 8
  %rem.i.i.i.i = and i32 %sub8.i, 7
  %idxprom.i4.i.i.i = zext nneg i32 %rem.i.i.i.i to i64
  %arrayidx.i5.i.i.i = getelementptr inbounds [8 x i8], ptr @_ZN8facebook5velox4bitsL13kZeroBitmasksE, i64 0, i64 %idxprom.i4.i.i.i
  %26 = load i8, ptr %arrayidx.i5.i.i.i, align 1
  %div2.i6.i.i.i = lshr i32 %sub8.i, 3
  %idxprom1.i.i.i.i = zext nneg i32 %div2.i6.i.i.i to i64
  %arrayidx2.i.i.i.i = getelementptr inbounds i8, ptr %25, i64 %idxprom1.i.i.i.i
  %27 = load i8, ptr %arrayidx2.i.i.i.i, align 1
  %and3.i.i.i.i = and i8 %27, %26
  store i8 %and3.i.i.i.i, ptr %arrayidx2.i.i.i.i, align 1
  %_M_engaged.i.i.i.i.i = getelementptr inbounds i8, ptr %24, i64 37
  %28 = load i8, ptr %_M_engaged.i.i.i.i.i, align 1
  %29 = and i8 %28, 1
  %tobool.not.i.i.i.i.i = icmp eq i8 %29, 0
  br i1 %tobool.not.i.i.i.i.i, label %_ZN8facebook5velox17SelectivityVector8setValidEib.exit.i, label %if.then.i.i.i.i.i

if.then.i.i.i.i.i:                                ; preds = %if.then10.i
  store i8 0, ptr %_M_engaged.i.i.i.i.i, align 1
  br label %_ZN8facebook5velox17SelectivityVector8setValidEib.exit.i

_ZN8facebook5velox17SelectivityVector8setValidEib.exit.i: ; preds = %if.then.i.i.i.i.i, %if.then10.i
  %30 = load ptr, ptr %6, align 8
  %31 = load ptr, ptr %30, align 8
  %arrayidx14.i = getelementptr inbounds i32, ptr %31, i64 %idxprom.i
  %32 = load i32, ptr %arrayidx14.i, align 4
  %dec.i = add nsw i32 %32, -1
  store i32 %dec.i, ptr %arrayidx14.i, align 4
  br label %for.inc.i

for.inc.i:                                        ; preds = %_ZN8facebook5velox17SelectivityVector8setValidEib.exit.i, %for.body.i
  %inc16.i = add nuw nsw i32 %i.011.i, 1
  %exitcond.not.i = icmp eq i32 %inc16.i, %16
  br i1 %exitcond.not.i, label %_ZZNK8facebook5velox9functions12_GLOBAL__N_117MapConcatFunctionILb1EE5applyERKNS0_17SelectivityVectorERSt6vectorISt10shared_ptrINS0_10BaseVectorEESaISB_EERKS9_IKNS0_4TypeEERNS0_4exec7EvalCtxERSB_ENKUliE1_clEi.exit, label %for.body.i, !llvm.loop !202

_ZZNK8facebook5velox9functions12_GLOBAL__N_117MapConcatFunctionILb1EE5applyERKNS0_17SelectivityVectorERSt6vectorISt10shared_ptrINS0_10BaseVectorEESaISB_EERKS9_IKNS0_4TypeEERNS0_4exec7EvalCtxERSB_ENKUliE1_clEi.exit: ; preds = %for.inc.i, %if.end.i
  %sub = add i64 %word.0, -1
  %and6 = and i64 %sub, %word.0
  %tobool5.old.not = icmp eq i64 %and6, 0
  br i1 %tobool5.old.not, label %while.end, label %while.body

while.end:                                        ; preds = %_ZZNK8facebook5velox9functions12_GLOBAL__N_117MapConcatFunctionILb1EE5applyERKNS0_17SelectivityVectorERSt6vectorISt10shared_ptrINS0_10BaseVectorEESaISB_EERKS9_IKNS0_4TypeEERNS0_4exec7EvalCtxERSB_ENKUliE1_clEi.exit, %entry
  ret void
}